; Function Attrs: mustprogress nofree norecurse nosync nounwind willreturn memory(read, inaccessiblemem: none) uwtable
define dso_local noundef zeroext i1 @_ZNK5clang7CodeGen12SwiftABIInfo16occupiesMoreThanEN4llvm8ArrayRefIPNS2_4TypeEEEj(ptr nocapture noundef nonnull readonly align 8 dereferenceable(17) %0, ptr readonly %1, i64 %2, i32 noundef %3) local_unnamed_addr #5 align 2 {
  %5 = getelementptr inbounds ptr, ptr %1, i64 %2
  %.not25 = icmp eq i64 %2, 0
  br i1 %.not25, label %._crit_edge, label %.lr.ph

.lr.ph:                                           ; preds = %4
  %6 = getelementptr inbounds nuw i8, ptr %0, i64 8
  %7 = load ptr, ptr %6, align 8
  %8 = getelementptr inbounds nuw i8, ptr %7, i64 24
  br label %9

9:                                                ; preds = %.lr.ph, %29
  %.028 = phi i32 [ 0, %.lr.ph ], [ %.1, %29 ]
  %.01827 = phi i32 [ 0, %.lr.ph ], [ %.119, %29 ]
  %.02026 = phi ptr [ %1, %.lr.ph ], [ %30, %29 ]
  %10 = load ptr, ptr %.02026, align 8
  %11 = getelementptr inbounds nuw i8, ptr %10, i64 8
  %12 = load i32, ptr %11, align 8
  %trunc = trunc i32 %12 to i8
  switch i8 %trunc, label %27 [
    i8 14, label %13
    i8 12, label %15
  ]

13:                                               ; preds = %9
  %14 = add i32 %.028, 1
  br label %29

15:                                               ; preds = %9
  %16 = load ptr, ptr %8, align 8
  %17 = getelementptr inbounds i8, ptr %16, i64 8
  %18 = load i8, ptr %17, align 8
  %19 = zext i8 %18 to i64
  %20 = lshr i32 %12, 8
  %21 = zext nneg i32 %20 to i64
  %22 = add nsw i64 %19, -1
  %23 = add nsw i64 %22, %21
  %24 = udiv i64 %23, %19
  %25 = trunc i64 %24 to i32
  %26 = add i32 %.028, %25
  br label %29

27:                                               ; preds = %9
  %28 = add i32 %.01827, 1
  br label %29

29:                                               ; preds = %13, %27, %15
  %.119 = phi i32 [ %.01827, %13 ], [ %.01827, %15 ], [ %28, %27 ]
  %.1 = phi i32 [ %14, %13 ], [ %26, %15 ], [ %.028, %27 ]
  %30 = getelementptr inbounds i8, ptr %.02026, i64 8
  %.not = icmp eq ptr %30, %5
  br i1 %.not, label %._crit_edge.loopexit, label %9

._crit_edge.loopexit:                             ; preds = %29
  %31 = add i32 %.1, %.119
  br label %._crit_edge

._crit_edge:                                      ; preds = %._crit_edge.loopexit, %4
  %32 = phi i32 [ 0, %4 ], [ %31, %._crit_edge.loopexit ]
  %33 = icmp ugt i32 %32, %3
  ret i1 %33
}